target datalayout = "e-m:e-p270:32:32-p271:32:32-p272:64:64-i64:64-i128:128-f80:128-n8:16:32:64-S128"
target triple = "x86_64-unknown-linux-gnu"

%"class.ue2::ComponentEUS" = type <{ %"class.ue2::Component", i32, i8, [3 x i8], i32, [4 x i8] }>
%"class.ue2::Component" = type { ptr, i32, i32 }
%"struct.ue2::ParseMode" = type { i8, i8, i8, i8, i8, i8 }

@_ZN3ue218GlushkovBuildState17POS_UNINITIALIZEDE = external constant i32, align 4

; Function Attrs: mustprogress uwtable
define hidden void @_ZN3ue212ComponentEUSC2EjRKNS_9ParseModeE(ptr noundef nonnull align 8 dereferenceable(28) %this, i32 noundef %loc_in, ptr noundef nonnull align 1 dereferenceable(6) %mode) unnamed_addr #0 align 2 {
entry:
  %this.addr = alloca ptr, align 8
  %loc_in.addr = alloca i32, align 4
  %mode.addr = alloca ptr, align 8
  store ptr %this, ptr %this.addr, align 8
  store i32 %loc_in, ptr %loc_in.addr, align 4
  store ptr %mode, ptr %mode.addr, align 8
  %this1 = load ptr, ptr %this.addr, align 8
  call void @_ZN3ue29ComponentC2Ev(ptr noundef nonnull align 8 dereferenceable(16) %this1)
  store ptr getelementptr inbounds ({ [17 x ptr] }, ptr @_ZTVN3ue212ComponentEUSE, i32 0, i32 0, i32 2), ptr %this1, align 8
  %loc = getelementptr inbounds %"class.ue2::ComponentEUS", ptr %this1, i32 0, i32 1
  %0 = load i32, ptr %loc_in.addr, align 4
  store i32 %0, ptr %loc, align 8
  %utf8 = getelementptr inbounds %"class.ue2::ComponentEUS", ptr %this1, i32 0, i32 2
  %1 = load ptr, ptr %mode.addr, align 8
  %utf82 = getelementptr inbounds %"struct.ue2::ParseMode", ptr %1, i32 0, i32 5
  %2 = load i8, ptr %utf82, align 1
  %tobool = trunc i8 %2 to i1
  %frombool = zext i1 %tobool to i8
  store i8 %frombool, ptr %utf8, align 4
  %position = getelementptr inbounds %"class.ue2::ComponentEUS", ptr %this1, i32 0, i32 4
  %3 = load i32, ptr @_ZN3ue218GlushkovBuildState17POS_UNINITIALIZEDE, align 4
  store i32 %3, ptr %position, align 8
  ret void
}