; Function Attrs: mustprogress uwtable
define hidden void @_ZN3ue212ComponentEUSC2EjRKNS_9ParseModeE(ptr noundef nonnull align 8 dereferenceable(28) %this, i32 noundef %loc_in, ptr nocapture noundef nonnull readonly align 1 dereferenceable(6) %mode) unnamed_addr #0 align 2 {
entry:
  tail call void @_ZN3ue29ComponentC2Ev(ptr noundef nonnull align 8 dereferenceable(16) %this)
  store ptr getelementptr inbounds ({ [17 x ptr] }, ptr @_ZTVN3ue212ComponentEUSE, i64 0, i32 0, i64 2), ptr %this, align 8
  %loc = getelementptr inbounds i8, ptr %this, i64 16
  store i32 %loc_in, ptr %loc, align 8
  %utf8 = getelementptr inbounds i8, ptr %this, i64 20
  %utf82 = getelementptr inbounds i8, ptr %mode, i64 5
  %0 = load i8, ptr %utf82, align 1
  %1 = and i8 %0, 1
  store i8 %1, ptr %utf8, align 4
  %position = getelementptr inbounds i8, ptr %this, i64 24
  %2 = load i32, ptr @_ZN3ue218GlushkovBuildState17POS_UNINITIALIZEDE, align 4
  store i32 %2, ptr %position, align 8
  ret void
}